; Function Attrs: nounwind uwtable
define dso_local range(i32 0, 2) i32 @setup_tests() local_unnamed_addr #0 {
  %1 = tail call ptr @OSSL_LIB_CTX_new() #5
  store ptr %1, ptr @libctx, align 8, !tbaa !4
  %2 = icmp eq ptr %1, null
  br i1 %2, label %4, label %3

3:                                                ; preds = %0
  tail call void @add_test(ptr noundef nonnull @.str, ptr noundef nonnull @test_skey_cipher) #5
  tail call void @add_test(ptr noundef nonnull @.str.1, ptr noundef nonnull @test_aes_raw_skey) #5
  tail call void @add_test(ptr noundef nonnull @.str.2, ptr noundef nonnull @test_des_raw_skey) #5
  br label %4

4:                                                ; preds = %0, %3
  %.0 = phi i32 [ 1, %3 ], [ 0, %0 ]
  ret i32 %.0
}